target datalayout = "e-m:e-p270:32:32-p271:32:32-p272:64:64-i64:64-i128:128-f80:128-n8:16:32:64-S128"
target triple = "x86_64-pc-linux-gnu"

%"class.cv::utils::trace::details::Region" = type <{ ptr, i32, [4 x i8] }>

; Function Attrs: mustprogress nounwind uwtable
define internal noundef ptr @_ZN2cvL17getAddWeightedTabEv() #2 {
  ret ptr @_ZZN2cvL17getAddWeightedTabEvE14addWeightedTab
}

; Function Attrs: mustprogress uwtable
define void @_ZN2cv11addWeightedERKNS_11_InputArrayEdS2_ddRKNS_12_OutputArrayEi(ptr noundef nonnull align 8 dereferenceable(24) %0, double noundef %1, ptr noundef nonnull align 8 dereferenceable(24) %2, double noundef %3, double noundef %4, ptr noundef nonnull align 8 dereferenceable(24) %5, i32 noundef %6) #0 personality ptr @__gxx_personality_v0 {
  %8 = alloca ptr, align 8
  %9 = alloca double, align 8
  %10 = alloca ptr, align 8
  %11 = alloca double, align 8
  %12 = alloca double, align 8
  %13 = alloca ptr, align 8
  %14 = alloca i32, align 4
  %15 = alloca %"class.cv::utils::trace::details::Region", align 8
  %16 = alloca [3 x double], align 16
  %17 = alloca ptr, align 8
  %18 = alloca i32, align 4
  store ptr %0, ptr %8, align 8
  store double %1, ptr %9, align 8
  store ptr %2, ptr %10, align 8
  store double %3, ptr %11, align 8
  store double %4, ptr %12, align 8
  store ptr %5, ptr %13, align 8
  store i32 %6, ptr %14, align 4
  call void @_ZN2cv5utils5trace7details6RegionC1ERKNS3_21LocationStaticStorageE(ptr noundef nonnull align 8 dereferenceable(12) %15, ptr noundef nonnull align 8 dereferenceable(32) @_ZZN2cv11addWeightedERKNS_11_InputArrayEdS2_ddRKNS_12_OutputArrayEiE26__cv_trace_location_fn1173)
  %19 = load double, ptr %9, align 8
  store double %19, ptr %16, align 8
  %20 = getelementptr inbounds double, ptr %16, i64 1
  %21 = load double, ptr %11, align 8
  store double %21, ptr %20, align 8
  %22 = getelementptr inbounds double, ptr %16, i64 2
  %23 = load double, ptr %12, align 8
  store double %23, ptr %22, align 8
  %24 = load ptr, ptr %8, align 8
  %25 = load ptr, ptr %10, align 8
  %26 = load ptr, ptr %13, align 8
  %27 = invoke noundef nonnull align 8 dereferenceable(24) ptr @_ZN2cv7noArrayEv()
          to label %28 unwind label %34

28:                                               ; preds = %7
  %29 = load i32, ptr %14, align 4
  %30 = invoke noundef ptr @_ZN2cvL17getAddWeightedTabEv()
          to label %31 unwind label %34

31:                                               ; preds = %28
  %32 = getelementptr inbounds [3 x double], ptr %16, i64 0, i64 0
  invoke void @_ZN2cvL9arithm_opERKNS_11_InputArrayES2_RKNS_12_OutputArrayES2_iPPFvPKhmS7_mPhmiiPvEbS9_iPFiS7_mS7_mS8_miiS9_E(ptr noundef nonnull align 8 dereferenceable(24) %24, ptr noundef nonnull align 8 dereferenceable(24) %25, ptr noundef nonnull align 8 dereferenceable(24) %26, ptr noundef nonnull align 8 dereferenceable(24) %27, i32 noundef %29, ptr noundef %30, i1 noundef zeroext true, ptr noundef %32, i32 noundef 8, ptr noundef null)
          to label %33 unwind label %34

33:                                               ; preds = %31
  call void @_ZN2cv5utils5trace7details6RegionD2Ev(ptr noundef nonnull align 8 dereferenceable(12) %15) #13
  ret void

34:                                               ; preds = %31, %28, %7
  %35 = landingpad { ptr, i32 }
          cleanup
  %36 = extractvalue { ptr, i32 } %35, 0
  store ptr %36, ptr %17, align 8
  %37 = extractvalue { ptr, i32 } %35, 1
  store i32 %37, ptr %18, align 4
  call void @_ZN2cv5utils5trace7details6RegionD2Ev(ptr noundef nonnull align 8 dereferenceable(12) %15) #13
  br label %38

38:                                               ; preds = %34
  %39 = load ptr, ptr %17, align 8
  %40 = load i32, ptr %18, align 4
  %41 = insertvalue { ptr, i32 } poison, ptr %39, 0
  %42 = insertvalue { ptr, i32 } %41, i32 %40, 1
  resume { ptr, i32 } %42
}