; Function Attrs: mustprogress uwtable
define void @_ZN2cv11addWeightedERKNS_11_InputArrayEdS2_ddRKNS_12_OutputArrayEi(ptr noundef nonnull align 8 dereferenceable(24) %0, double noundef %1, ptr noundef nonnull align 8 dereferenceable(24) %2, double noundef %3, double noundef %4, ptr noundef nonnull align 8 dereferenceable(24) %5, i32 noundef %6) local_unnamed_addr #0 personality ptr @__gxx_personality_v0 {
  %8 = alloca %"class.cv::utils::trace::details::Region", align 8
  %9 = alloca [3 x double], align 16
  call void @_ZN2cv5utils5trace7details6RegionC1ERKNS3_21LocationStaticStorageE(ptr noundef nonnull align 8 dereferenceable(12) %8, ptr noundef nonnull align 8 dereferenceable(32) @_ZZN2cv11addWeightedERKNS_11_InputArrayEdS2_ddRKNS_12_OutputArrayEiE26__cv_trace_location_fn1173)
  store double %1, ptr %9, align 16
  %10 = getelementptr inbounds i8, ptr %9, i64 8
  store double %3, ptr %10, align 8
  %11 = getelementptr inbounds i8, ptr %9, i64 16
  store double %4, ptr %11, align 16
  %12 = invoke noundef nonnull align 8 dereferenceable(24) ptr @_ZN2cv7noArrayEv()
          to label %13 unwind label %21

13:                                               ; preds = %7
  invoke fastcc void @_ZN2cvL9arithm_opERKNS_11_InputArrayES2_RKNS_12_OutputArrayES2_iPPFvPKhmS7_mPhmiiPvEbS9_iPFiS7_mS7_mS8_miiS9_E(ptr noundef nonnull align 8 dereferenceable(24) %0, ptr noundef nonnull align 8 dereferenceable(24) %2, ptr noundef nonnull align 8 dereferenceable(24) %5, ptr noundef nonnull align 8 dereferenceable(24) %12, i32 noundef %6, ptr noundef nonnull @_ZZN2cvL17getAddWeightedTabEvE14addWeightedTab, i1 noundef zeroext true, ptr noundef nonnull %9, ptr noundef null)
          to label %14 unwind label %21

14:                                               ; preds = %13
  %15 = getelementptr inbounds i8, ptr %8, i64 8
  %16 = load i32, ptr %15, align 8
  %.not.i = icmp eq i32 %16, 0
  br i1 %.not.i, label %_ZN2cv5utils5trace7details6RegionD2Ev.exit, label %17

17:                                               ; preds = %14
  invoke void @_ZN2cv5utils5trace7details6Region7destroyEv(ptr noundef nonnull align 8 dereferenceable(12) %8)
          to label %_ZN2cv5utils5trace7details6RegionD2Ev.exit unwind label %18

18:                                               ; preds = %17
  %19 = landingpad { ptr, i32 }
          catch ptr null
  %20 = extractvalue { ptr, i32 } %19, 0
  call void @__clang_call_terminate(ptr %20) #17
  unreachable

_ZN2cv5utils5trace7details6RegionD2Ev.exit:       ; preds = %14, %17
  ret void

21:                                               ; preds = %13, %7
  %22 = landingpad { ptr, i32 }
          cleanup
  call void @_ZN2cv5utils5trace7details6RegionD2Ev(ptr noundef nonnull align 8 dereferenceable(12) %8) #18
  resume { ptr, i32 } %22
}